target datalayout = "e-m:e-p270:32:32-p271:32:32-p272:64:64-i64:64-i128:128-f80:128-n8:16:32:64-S128"
target triple = "x86_64-pc-linux-gnu"

@_ZZN6google8protobuf23InternalFastHexToBufferEmPciE9hexdigits = internal global ptr @.str.9, align 8

; Function Attrs: mustprogress nounwind uwtable
define noundef ptr @_ZN6google8protobuf23InternalFastHexToBufferEmPci(i64 noundef %0, ptr noundef %1, i32 noundef %2) #6 {
  %4 = alloca i64, align 8
  %5 = alloca ptr, align 8
  %6 = alloca i32, align 4
  %7 = alloca i32, align 4
  store i64 %0, ptr %4, align 8, !tbaa !13
  store ptr %1, ptr %5, align 8, !tbaa !8
  store i32 %2, ptr %6, align 4, !tbaa !15
  %8 = load ptr, ptr %5, align 8, !tbaa !8
  %9 = load i32, ptr %6, align 4, !tbaa !15
  %10 = sext i32 %9 to i64
  %11 = getelementptr inbounds i8, ptr %8, i64 %10
  store i8 0, ptr %11, align 1, !tbaa !10
  call void @llvm.lifetime.start.p0(i64 4, ptr %7) #3
  %12 = load i32, ptr %6, align 4, !tbaa !15
  %13 = sub nsw i32 %12, 1
  store i32 %13, ptr %7, align 4, !tbaa !15
  br label %14

14:                                               ; preds = %32, %3
  %15 = load i32, ptr %7, align 4, !tbaa !15
  %16 = icmp sge i32 %15, 0
  br i1 %16, label %18, label %17

17:                                               ; preds = %14
  call void @llvm.lifetime.end.p0(i64 4, ptr %7) #3
  br label %35

18:                                               ; preds = %14
  %19 = load ptr, ptr @_ZZN6google8protobuf23InternalFastHexToBufferEmPciE9hexdigits, align 8, !tbaa !8
  %20 = load i64, ptr %4, align 8, !tbaa !13
  %21 = trunc i64 %20 to i32
  %22 = and i32 %21, 15
  %23 = zext i32 %22 to i64
  %24 = getelementptr inbounds nuw i8, ptr %19, i64 %23
  %25 = load i8, ptr %24, align 1, !tbaa !10
  %26 = load ptr, ptr %5, align 8, !tbaa !8
  %27 = load i32, ptr %7, align 4, !tbaa !15
  %28 = sext i32 %27 to i64
  %29 = getelementptr inbounds i8, ptr %26, i64 %28
  store i8 %25, ptr %29, align 1, !tbaa !10
  %30 = load i64, ptr %4, align 8, !tbaa !13
  %31 = lshr i64 %30, 4
  store i64 %31, ptr %4, align 8, !tbaa !13
  br label %32

32:                                               ; preds = %18
  %33 = load i32, ptr %7, align 4, !tbaa !15
  %34 = add nsw i32 %33, -1
  store i32 %34, ptr %7, align 4, !tbaa !15
  br label %14, !llvm.loop !69

35:                                               ; preds = %17
  %36 = load ptr, ptr %5, align 8, !tbaa !8
  ret ptr %36
}

; Function Attrs: mustprogress nounwind uwtable
define noundef ptr @_ZN6google8protobuf17FastHex64ToBufferEmPc(i64 noundef %0, ptr noundef %1) #6 {
  %3 = alloca i64, align 8
  %4 = alloca ptr, align 8
  store i64 %0, ptr %3, align 8, !tbaa !13
  store ptr %1, ptr %4, align 8, !tbaa !8
  %5 = load i64, ptr %3, align 8, !tbaa !13
  %6 = load ptr, ptr %4, align 8, !tbaa !8
  %7 = call noundef ptr @_ZN6google8protobuf23InternalFastHexToBufferEmPci(i64 noundef %5, ptr noundef %6, i32 noundef 16)
  ret ptr %7
}